target datalayout = "e-m:e-p270:32:32-p271:32:32-p272:64:64-i64:64-i128:128-f80:128-n8:16:32:64-S128"
target triple = "x86_64-unknown-linux-gnu"

%"class.std::__cxx11::basic_string" = type { %"struct.std::__cxx11::basic_string<char>::_Alloc_hider", i64, %union.anon }
%"struct.std::__cxx11::basic_string<char>::_Alloc_hider" = type { ptr }
%union.anon = type { i64, [8 x i8] }
%"class.Assimp::Ogre::Mesh" = type { i8, %"class.std::__cxx11::basic_string", ptr, ptr, %"class.std::vector.7", %"class.std::vector.12", %"class.std::vector.17" }
%"class.std::vector.7" = type { %"struct.std::_Vector_base.8" }
%"struct.std::_Vector_base.8" = type { %"struct.std::_Vector_base<Assimp::Ogre::SubMesh *, std::allocator<Assimp::Ogre::SubMesh *>>::_Vector_impl" }
%"struct.std::_Vector_base<Assimp::Ogre::SubMesh *, std::allocator<Assimp::Ogre::SubMesh *>>::_Vector_impl" = type { %"struct.std::_Vector_base<Assimp::Ogre::SubMesh *, std::allocator<Assimp::Ogre::SubMesh *>>::_Vector_impl_data" }
%"struct.std::_Vector_base<Assimp::Ogre::SubMesh *, std::allocator<Assimp::Ogre::SubMesh *>>::_Vector_impl_data" = type { ptr, ptr, ptr }
%"class.std::vector.12" = type { %"struct.std::_Vector_base.13" }
%"struct.std::_Vector_base.13" = type { %"struct.std::_Vector_base<Assimp::Ogre::Animation *, std::allocator<Assimp::Ogre::Animation *>>::_Vector_impl" }
%"struct.std::_Vector_base<Assimp::Ogre::Animation *, std::allocator<Assimp::Ogre::Animation *>>::_Vector_impl" = type { %"struct.std::_Vector_base<Assimp::Ogre::Animation *, std::allocator<Assimp::Ogre::Animation *>>::_Vector_impl_data" }
%"struct.std::_Vector_base<Assimp::Ogre::Animation *, std::allocator<Assimp::Ogre::Animation *>>::_Vector_impl_data" = type { ptr, ptr, ptr }
%"class.std::vector.17" = type { %"struct.std::_Vector_base.18" }
%"struct.std::_Vector_base.18" = type { %"struct.std::_Vector_base<Assimp::Ogre::Pose *, std::allocator<Assimp::Ogre::Pose *>>::_Vector_impl" }
%"struct.std::_Vector_base<Assimp::Ogre::Pose *, std::allocator<Assimp::Ogre::Pose *>>::_Vector_impl" = type { %"struct.std::_Vector_base<Assimp::Ogre::Pose *, std::allocator<Assimp::Ogre::Pose *>>::_Vector_impl_data" }
%"struct.std::_Vector_base<Assimp::Ogre::Pose *, std::allocator<Assimp::Ogre::Pose *>>::_Vector_impl_data" = type { ptr, ptr, ptr }

; Function Attrs: mustprogress uwtable
define hidden void @_ZN6Assimp4Ogre20OgreBinarySerializer20ReadMeshSkeletonLinkEPNS0_4MeshE(ptr noundef nonnull align 8 dereferenceable(20) %this, ptr noundef %mesh) #2 align 2 {
entry:
  %this.addr = alloca ptr, align 8
  %mesh.addr = alloca ptr, align 8
  %ref.tmp = alloca %"class.std::__cxx11::basic_string", align 8
  store ptr %this, ptr %this.addr, align 8
  store ptr %mesh, ptr %mesh.addr, align 8
  %this1 = load ptr, ptr %this.addr, align 8
  call void @_ZN6Assimp4Ogre20OgreBinarySerializer8ReadLineB5cxx11Ev(ptr sret(%"class.std::__cxx11::basic_string") align 8 %ref.tmp, ptr noundef nonnull align 8 dereferenceable(20) %this1)
  %0 = load ptr, ptr %mesh.addr, align 8
  %skeletonRef = getelementptr inbounds %"class.Assimp::Ogre::Mesh", ptr %0, i32 0, i32 1
  %call = call noundef nonnull align 8 dereferenceable(32) ptr @_ZNSt7__cxx1112basic_stringIcSt11char_traitsIcESaIcEEaSEOS4_(ptr noundef nonnull align 8 dereferenceable(32) %skeletonRef, ptr noundef nonnull align 8 dereferenceable(32) %ref.tmp) #5
  call void @_ZNSt7__cxx1112basic_stringIcSt11char_traitsIcESaIcEED1Ev(ptr noundef nonnull align 8 dereferenceable(32) %ref.tmp) #5
  ret void
}